target datalayout = "e-m:e-p270:32:32-p271:32:32-p272:64:64-i64:64-i128:128-f80:128-n8:16:32:64-S128"
target triple = "x86_64-pc-linux-gnu"

%struct.pdf_struct = type { ptr, i32, i32, i32, i32, i32, ptr, i64, ptr, i64, i64, i64, ptr, ptr, i32, i32, ptr, i32, ptr, i32, %struct.pdf_stats, ptr, i32, i32 }
%struct.pdf_stats = type { i32, i32, i32, i32, i32, i32, i32, i32, i32, i32, i32, i32, i32, i32, i32, i32, i32, i32, i32, i32, i32, i32, i32, i32, i32, ptr, ptr, ptr, ptr, ptr, ptr, ptr, ptr }
%struct.arc4_state = type { [256 x i32], i8, i8 }

@.str.49 = private unnamed_addr constant [5 x i8] c"sAlT\00", align 1
@.str.50 = private unnamed_addr constant [4 x i8] c"md5\00", align 1
@.str.51 = private unnamed_addr constant [20 x i8] c"cli_pdf: enc is v2\0A\00", align 1
@.str.52 = private unnamed_addr constant [23 x i8] c"cli_pdf: enc is aesv2\0A\00", align 1
@.str.53 = private unnamed_addr constant [27 x i8] c"decrypt_any: enc is aesv3\0A\00", align 1
@.str.54 = private unnamed_addr constant [30 x i8] c"decrypt_any: enc is identity\0A\00", align 1
@.str.55 = private unnamed_addr constant [26 x i8] c"decrypt_any: enc is none\0A\00", align 1
@.str.56 = private unnamed_addr constant [29 x i8] c"decrypt_any: enc is unknown\0A\00", align 1

; Function Attrs: nounwind uwtable
define ptr @decrypt_any(ptr noundef %0, i32 noundef %1, ptr noundef %2, ptr noundef %3, i32 noundef %4) #0 {
  %6 = alloca ptr, align 8
  %7 = alloca ptr, align 8
  %8 = alloca i32, align 4
  %9 = alloca ptr, align 8
  %10 = alloca ptr, align 8
  %11 = alloca i32, align 4
  %12 = alloca ptr, align 8
  %13 = alloca ptr, align 8
  %14 = alloca [16 x i8], align 16
  %15 = alloca i32, align 4
  %16 = alloca %struct.arc4_state, align 4
  store ptr %0, ptr %7, align 8
  store i32 %1, ptr %8, align 4
  store ptr %2, ptr %9, align 8
  store ptr %3, ptr %10, align 8
  store i32 %4, ptr %11, align 4
  %17 = load ptr, ptr %10, align 8
  %18 = icmp ne ptr %17, null
  br i1 %18, label %19, label %26

19:                                               ; preds = %5
  %20 = load ptr, ptr %10, align 8
  %21 = load i64, ptr %20, align 8
  %22 = icmp ne i64 %21, 0
  br i1 %22, label %23, label %26

23:                                               ; preds = %19
  %24 = load ptr, ptr %9, align 8
  %25 = icmp ne ptr %24, null
  br i1 %25, label %27, label %26

26:                                               ; preds = %23, %19, %5
  store ptr null, ptr %6, align 8
  br label %162

27:                                               ; preds = %23
  %28 = load ptr, ptr %7, align 8
  %29 = getelementptr inbounds %struct.pdf_struct, ptr %28, i32 0, i32 18
  %30 = load ptr, ptr %29, align 8
  %31 = icmp eq ptr null, %30
  br i1 %31, label %37, label %32

32:                                               ; preds = %27
  %33 = load ptr, ptr %7, align 8
  %34 = getelementptr inbounds %struct.pdf_struct, ptr %33, i32 0, i32 19
  %35 = load i32, ptr %34, align 8
  %36 = icmp eq i32 0, %35
  br i1 %36, label %37, label %38

37:                                               ; preds = %32, %27
  store ptr null, ptr %6, align 8
  br label %162

38:                                               ; preds = %32
  %39 = load ptr, ptr %7, align 8
  %40 = getelementptr inbounds %struct.pdf_struct, ptr %39, i32 0, i32 19
  %41 = load i32, ptr %40, align 8
  %42 = add i32 %41, 5
  store i32 %42, ptr %15, align 4
  %43 = load i32, ptr %11, align 4
  %44 = icmp eq i32 %43, 4
  br i1 %44, label %45, label %48

45:                                               ; preds = %38
  %46 = load i32, ptr %15, align 4
  %47 = add i32 %46, 4
  store i32 %47, ptr %15, align 4
  br label %48

48:                                               ; preds = %45, %38
  %49 = load i32, ptr %15, align 4
  %50 = zext i32 %49 to i64
  %51 = call ptr @cli_max_malloc(i64 noundef %50)
  store ptr %51, ptr %12, align 8
  %52 = load ptr, ptr %12, align 8
  %53 = icmp ne ptr %52, null
  br i1 %53, label %55, label %54

54:                                               ; preds = %48
  store ptr null, ptr %6, align 8
  br label %162

55:                                               ; preds = %48
  %56 = load ptr, ptr %12, align 8
  %57 = load ptr, ptr %7, align 8
  %58 = getelementptr inbounds %struct.pdf_struct, ptr %57, i32 0, i32 18
  %59 = load ptr, ptr %58, align 8
  %60 = load ptr, ptr %7, align 8
  %61 = getelementptr inbounds %struct.pdf_struct, ptr %60, i32 0, i32 19
  %62 = load i32, ptr %61, align 8
  %63 = zext i32 %62 to i64
  call void @llvm.memcpy.p0.p0.i64(ptr align 1 %56, ptr align 1 %59, i64 %63, i1 false)
  %64 = load ptr, ptr %12, align 8
  %65 = load ptr, ptr %7, align 8
  %66 = getelementptr inbounds %struct.pdf_struct, ptr %65, i32 0, i32 19
  %67 = load i32, ptr %66, align 8
  %68 = zext i32 %67 to i64
  %69 = getelementptr inbounds i8, ptr %64, i64 %68
  store ptr %69, ptr %13, align 8
  %70 = load i32, ptr %8, align 4
  %71 = lshr i32 %70, 8
  %72 = trunc i32 %71 to i8
  %73 = load ptr, ptr %13, align 8
  %74 = getelementptr inbounds i8, ptr %73, i32 1
  store ptr %74, ptr %13, align 8
  store i8 %72, ptr %73, align 1
  %75 = load i32, ptr %8, align 4
  %76 = lshr i32 %75, 16
  %77 = trunc i32 %76 to i8
  %78 = load ptr, ptr %13, align 8
  %79 = getelementptr inbounds i8, ptr %78, i32 1
  store ptr %79, ptr %13, align 8
  store i8 %77, ptr %78, align 1
  %80 = load i32, ptr %8, align 4
  %81 = lshr i32 %80, 24
  %82 = trunc i32 %81 to i8
  %83 = load ptr, ptr %13, align 8
  %84 = getelementptr inbounds i8, ptr %83, i32 1
  store ptr %84, ptr %13, align 8
  store i8 %82, ptr %83, align 1
  %85 = load i32, ptr %8, align 4
  %86 = trunc i32 %85 to i8
  %87 = load ptr, ptr %13, align 8
  %88 = getelementptr inbounds i8, ptr %87, i32 1
  store ptr %88, ptr %13, align 8
  store i8 %86, ptr %87, align 1
  %89 = load ptr, ptr %13, align 8
  %90 = getelementptr inbounds i8, ptr %89, i32 1
  store ptr %90, ptr %13, align 8
  store i8 0, ptr %89, align 1
  %91 = load i32, ptr %11, align 4
  %92 = icmp eq i32 %91, 4
  br i1 %92, label %93, label %95

93:                                               ; preds = %55
  %94 = load ptr, ptr %13, align 8
  call void @llvm.memcpy.p0.p0.i64(ptr align 1 %94, ptr align 1 @.str.49, i64 4, i1 false)
  br label %95

95:                                               ; preds = %93, %55
  %96 = load ptr, ptr %12, align 8
  %97 = load i32, ptr %15, align 4
  %98 = zext i32 %97 to i64
  %99 = getelementptr inbounds [16 x i8], ptr %14, i64 0, i64 0
  %100 = call ptr @cl_hash_data(ptr noundef @.str.50, ptr noundef %96, i64 noundef %98, ptr noundef %99, ptr noundef null)
  %101 = load ptr, ptr %12, align 8
  call void @free(ptr noundef %101) #11
  %102 = load ptr, ptr %7, align 8
  %103 = getelementptr inbounds %struct.pdf_struct, ptr %102, i32 0, i32 19
  %104 = load i32, ptr %103, align 8
  %105 = add i32 %104, 5
  store i32 %105, ptr %15, align 4
  %106 = load i32, ptr %15, align 4
  %107 = icmp ugt i32 %106, 16
  br i1 %107, label %108, label %109

108:                                              ; preds = %95
  store i32 16, ptr %15, align 4
  br label %109

109:                                              ; preds = %108, %95
  %110 = load ptr, ptr %10, align 8
  %111 = load i64, ptr %110, align 8
  %112 = call ptr @cli_max_calloc(i64 noundef %111, i64 noundef 1)
  store ptr %112, ptr %13, align 8
  %113 = load ptr, ptr %13, align 8
  %114 = icmp ne ptr %113, null
  br i1 %114, label %116, label %115

115:                                              ; preds = %109
  store ptr null, ptr %6, align 8
  br label %162

116:                                              ; preds = %109
  %117 = load i32, ptr %11, align 4
  switch i32 %117, label %160 [
    i32 3, label %118
    i32 4, label %135
    i32 5, label %141
    i32 2, label %151
    i32 1, label %156
    i32 0, label %158
  ]

118:                                              ; preds = %116
  call void (ptr, ...) @cli_dbgmsg(ptr noundef @.str.51)
  %119 = load ptr, ptr %13, align 8
  %120 = load ptr, ptr %9, align 8
  %121 = load ptr, ptr %10, align 8
  %122 = load i64, ptr %121, align 8
  call void @llvm.memcpy.p0.p0.i64(ptr align 1 %119, ptr align 1 %120, i64 %122, i1 false)
  %123 = getelementptr inbounds [16 x i8], ptr %14, i64 0, i64 0
  %124 = load i32, ptr %15, align 4
  %125 = call zeroext i1 @arc4_init(ptr noundef %16, ptr noundef %123, i32 noundef %124)
  %126 = zext i1 %125 to i32
  %127 = icmp eq i32 0, %126
  br i1 %127, label %128, label %130

128:                                              ; preds = %118
  %129 = load ptr, ptr %13, align 8
  call void @free(ptr noundef %129) #11
  store ptr null, ptr %6, align 8
  br label %162

130:                                              ; preds = %118
  %131 = load ptr, ptr %13, align 8
  %132 = load ptr, ptr %10, align 8
  %133 = load i64, ptr %132, align 8
  %134 = trunc i64 %133 to i32
  call void @arc4_apply(ptr noundef %16, ptr noundef %131, i32 noundef %134)
  br label %160

135:                                              ; preds = %116
  call void (ptr, ...) @cli_dbgmsg(ptr noundef @.str.52)
  %136 = load ptr, ptr %9, align 8
  %137 = load ptr, ptr %10, align 8
  %138 = load ptr, ptr %13, align 8
  %139 = getelementptr inbounds [16 x i8], ptr %14, i64 0, i64 0
  %140 = load i32, ptr %15, align 4
  call void @aes_256cbc_decrypt(ptr noundef %136, ptr noundef %137, ptr noundef %138, ptr noundef %139, i32 noundef %140, i32 noundef 1)
  br label %160

141:                                              ; preds = %116
  call void (ptr, ...) @cli_dbgmsg(ptr noundef @.str.53)
  %142 = load ptr, ptr %9, align 8
  %143 = load ptr, ptr %10, align 8
  %144 = load ptr, ptr %13, align 8
  %145 = load ptr, ptr %7, align 8
  %146 = getelementptr inbounds %struct.pdf_struct, ptr %145, i32 0, i32 18
  %147 = load ptr, ptr %146, align 8
  %148 = load ptr, ptr %7, align 8
  %149 = getelementptr inbounds %struct.pdf_struct, ptr %148, i32 0, i32 19
  %150 = load i32, ptr %149, align 8
  call void @aes_256cbc_decrypt(ptr noundef %142, ptr noundef %143, ptr noundef %144, ptr noundef %147, i32 noundef %150, i32 noundef 1)
  br label %160

151:                                              ; preds = %116
  call void (ptr, ...) @cli_dbgmsg(ptr noundef @.str.54)
  %152 = load ptr, ptr %13, align 8
  %153 = load ptr, ptr %9, align 8
  %154 = load ptr, ptr %10, align 8
  %155 = load i64, ptr %154, align 8
  call void @llvm.memcpy.p0.p0.i64(ptr align 1 %152, ptr align 1 %153, i64 %155, i1 false)
  br label %160

156:                                              ; preds = %116
  call void (ptr, ...) @cli_dbgmsg(ptr noundef @.str.55)
  %157 = load ptr, ptr %13, align 8
  call void @free(ptr noundef %157) #11
  store ptr null, ptr %6, align 8
  br label %162

158:                                              ; preds = %116
  call void (ptr, ...) @cli_dbgmsg(ptr noundef @.str.56)
  %159 = load ptr, ptr %13, align 8
  call void @free(ptr noundef %159) #11
  store ptr null, ptr %6, align 8
  br label %162

160:                                              ; preds = %151, %141, %135, %130, %116
  %161 = load ptr, ptr %13, align 8
  store ptr %161, ptr %6, align 8
  br label %162

162:                                              ; preds = %160, %158, %156, %128, %115, %54, %37, %26
  %163 = load ptr, ptr %6, align 8
  ret ptr %163
}