; Function Attrs: nounwind uwtable
define ptr @decrypt_any(ptr nocapture noundef readonly %0, i32 noundef %1, ptr noundef %2, ptr noundef %3, i32 noundef %4) local_unnamed_addr #0 {
  %6 = alloca [16 x i8], align 16
  %7 = alloca %struct.arc4_state, align 4
  %.not = icmp eq ptr %3, null
  br i1 %.not, label %66, label %8

8:                                                ; preds = %5
  %9 = load i64, ptr %3, align 8
  %10 = icmp ne i64 %9, 0
  %11 = icmp ne ptr %2, null
  %or.cond = and i1 %11, %10
  br i1 %or.cond, label %12, label %66

12:                                               ; preds = %8
  %13 = getelementptr inbounds i8, ptr %0, i64 120
  %14 = load ptr, ptr %13, align 8
  %15 = icmp eq ptr %14, null
  br i1 %15, label %66, label %16

16:                                               ; preds = %12
  %17 = getelementptr inbounds i8, ptr %0, i64 128
  %18 = load i32, ptr %17, align 8
  %19 = icmp eq i32 %18, 0
  br i1 %19, label %66, label %20

20:                                               ; preds = %16
  %21 = icmp eq i32 %4, 4
  %spec.select.v = select i1 %21, i32 9, i32 5
  %spec.select = add i32 %18, %spec.select.v
  %22 = zext i32 %spec.select to i64
  %23 = tail call ptr @cli_max_malloc(i64 noundef %22) #22
  %.not63 = icmp eq ptr %23, null
  br i1 %.not63, label %66, label %24

24:                                               ; preds = %20
  %25 = load ptr, ptr %13, align 8
  %26 = load i32, ptr %17, align 8
  %27 = zext i32 %26 to i64
  tail call void @llvm.memcpy.p0.p0.i64(ptr nonnull align 1 %23, ptr align 1 %25, i64 %27, i1 false)
  %28 = load i32, ptr %17, align 8
  %29 = zext i32 %28 to i64
  %30 = getelementptr inbounds i8, ptr %23, i64 %29
  %31 = lshr i32 %1, 8
  %32 = trunc i32 %31 to i8
  %33 = getelementptr inbounds i8, ptr %30, i64 1
  store i8 %32, ptr %30, align 1
  %34 = lshr i32 %1, 16
  %35 = trunc i32 %34 to i8
  %36 = getelementptr inbounds i8, ptr %30, i64 2
  store i8 %35, ptr %33, align 1
  %37 = lshr i32 %1, 24
  %38 = trunc nuw i32 %37 to i8
  %39 = getelementptr inbounds i8, ptr %30, i64 3
  store i8 %38, ptr %36, align 1
  %40 = trunc i32 %1 to i8
  %41 = getelementptr inbounds i8, ptr %30, i64 4
  store i8 %40, ptr %39, align 1
  store i8 0, ptr %41, align 1
  br i1 %21, label %42, label %44

42:                                               ; preds = %24
  %43 = getelementptr inbounds i8, ptr %30, i64 5
  store i32 1416380787, ptr %43, align 1
  br label %44

44:                                               ; preds = %42, %24
  %45 = call ptr @cl_hash_data(ptr noundef nonnull @.str.50, ptr noundef nonnull %23, i64 noundef %22, ptr noundef nonnull %6, ptr noundef null) #22
  call void @free(ptr noundef nonnull %23) #22
  %46 = load i32, ptr %17, align 8
  %47 = add i32 %46, 5
  %spec.store.select = call i32 @llvm.umin.i32(i32 %47, i32 16)
  %48 = load i64, ptr %3, align 8
  %49 = call ptr @cli_max_calloc(i64 noundef %48, i64 noundef 1) #22
  %.not64 = icmp eq ptr %49, null
  br i1 %.not64, label %66, label %50

50:                                               ; preds = %44
  switch i32 %4, label %66 [
    i32 3, label %51
    i32 4, label %58
    i32 5, label %59
    i32 2, label %62
    i32 1, label %64
    i32 0, label %65
  ]

51:                                               ; preds = %50
  call void (ptr, ...) @cli_dbgmsg(ptr noundef nonnull @.str.51) #22
  %52 = load i64, ptr %3, align 8
  call void @llvm.memcpy.p0.p0.i64(ptr nonnull align 1 %49, ptr nonnull align 1 %2, i64 %52, i1 false)
  %53 = call zeroext i1 @arc4_init(ptr noundef nonnull %7, ptr noundef nonnull %6, i32 noundef %spec.store.select) #22
  br i1 %53, label %55, label %54

54:                                               ; preds = %51
  call void @free(ptr noundef nonnull %49) #22
  br label %66

55:                                               ; preds = %51
  %56 = load i64, ptr %3, align 8
  %57 = trunc i64 %56 to i32
  call void @arc4_apply(ptr noundef nonnull %7, ptr noundef nonnull %49, i32 noundef %57) #22
  br label %66

58:                                               ; preds = %50
  call void (ptr, ...) @cli_dbgmsg(ptr noundef nonnull @.str.52) #22
  call fastcc void @aes_256cbc_decrypt(ptr noundef nonnull %2, ptr noundef nonnull %3, ptr noundef nonnull %49, ptr noundef nonnull %6, i32 noundef %spec.store.select, i32 noundef 1)
  br label %66

59:                                               ; preds = %50
  call void (ptr, ...) @cli_dbgmsg(ptr noundef nonnull @.str.53) #22
  %60 = load ptr, ptr %13, align 8
  %61 = load i32, ptr %17, align 8
  call fastcc void @aes_256cbc_decrypt(ptr noundef nonnull %2, ptr noundef nonnull %3, ptr noundef nonnull %49, ptr noundef %60, i32 noundef %61, i32 noundef 1)
  br label %66

62:                                               ; preds = %50
  call void (ptr, ...) @cli_dbgmsg(ptr noundef nonnull @.str.54) #22
  %63 = load i64, ptr %3, align 8
  call void @llvm.memcpy.p0.p0.i64(ptr nonnull align 1 %49, ptr nonnull align 1 %2, i64 %63, i1 false)
  br label %66

64:                                               ; preds = %50
  call void (ptr, ...) @cli_dbgmsg(ptr noundef nonnull @.str.55) #22
  call void @free(ptr noundef nonnull %49) #22
  br label %66

65:                                               ; preds = %50
  call void (ptr, ...) @cli_dbgmsg(ptr noundef nonnull @.str.56) #22
  call void @free(ptr noundef nonnull %49) #22
  br label %66

66:                                               ; preds = %50, %55, %58, %59, %62, %44, %20, %12, %16, %5, %8, %65, %64, %54
  %.057 = phi ptr [ null, %65 ], [ null, %64 ], [ null, %54 ], [ null, %8 ], [ null, %5 ], [ null, %16 ], [ null, %12 ], [ null, %20 ], [ null, %44 ], [ %49, %62 ], [ %49, %59 ], [ %49, %58 ], [ %49, %55 ], [ %49, %50 ]
  ret ptr %.057
}